target datalayout = "e-m:e-p270:32:32-p271:32:32-p272:64:64-i64:64-i128:128-f80:128-n8:16:32:64-S128"
target triple = "x86_64-pc-linux-gnu"

%struct.blob = type { ptr, ptr, i64, i64, i32 }

@.str.1 = private unnamed_addr constant [10 x i8] c"b != NULL\00", align 1
@.str.2 = private unnamed_addr constant [108 x i8] c"generated/home/dtcxzyw/WorkSpace/Projects/compilers/llvm-opt-benchmark/bench/clamav/clamav/libclamav/blob.c\00", align 1
@__PRETTY_FUNCTION__.blobToMem = private unnamed_addr constant [24 x i8] c"void *blobToMem(blob *)\00", align 1

; Function Attrs: nounwind uwtable
define ptr @blobToMem(ptr noundef %0) #0 {
  %2 = alloca ptr, align 8
  %3 = alloca ptr, align 8
  store ptr %0, ptr %2, align 8
  %4 = load ptr, ptr %2, align 8
  %5 = icmp ne ptr %4, null
  br i1 %5, label %6, label %7

6:                                                ; preds = %1
  br label %8

7:                                                ; preds = %1
  call void @__assert_fail(ptr noundef @.str.1, ptr noundef @.str.2, i32 noundef 123, ptr noundef @__PRETTY_FUNCTION__.blobToMem) #8
  unreachable

8:                                                ; preds = %6
  %9 = load ptr, ptr %2, align 8
  %10 = getelementptr inbounds %struct.blob, ptr %9, i32 0, i32 4
  %11 = load i32, ptr %10, align 8
  %12 = icmp ne i32 %11, 0
  br i1 %12, label %15, label %13

13:                                               ; preds = %8
  %14 = load ptr, ptr %2, align 8
  call void @blobClose(ptr noundef %14)
  br label %15

15:                                               ; preds = %13, %8
  %16 = load ptr, ptr %2, align 8
  %17 = getelementptr inbounds %struct.blob, ptr %16, i32 0, i32 0
  %18 = load ptr, ptr %17, align 8
  %19 = icmp ne ptr %18, null
  br i1 %19, label %20, label %24

20:                                               ; preds = %15
  %21 = load ptr, ptr %2, align 8
  %22 = getelementptr inbounds %struct.blob, ptr %21, i32 0, i32 0
  %23 = load ptr, ptr %22, align 8
  call void @free(ptr noundef %23) #9
  br label %24

24:                                               ; preds = %20, %15
  %25 = load ptr, ptr %2, align 8
  %26 = getelementptr inbounds %struct.blob, ptr %25, i32 0, i32 1
  %27 = load ptr, ptr %26, align 8
  store ptr %27, ptr %3, align 8
  %28 = load ptr, ptr %2, align 8
  call void @free(ptr noundef %28) #9
  %29 = load ptr, ptr %3, align 8
  ret ptr %29
}