; Function Attrs: nounwind uwtable
define ptr @blobToMem(ptr noundef %0) local_unnamed_addr #2 {
  %.not = icmp eq ptr %0, null
  br i1 %.not, label %2, label %3

2:                                                ; preds = %1
  tail call void @__assert_fail(ptr noundef nonnull @.str.1, ptr noundef nonnull @.str.2, i32 noundef 123, ptr noundef nonnull @__PRETTY_FUNCTION__.blobToMem) #17
  unreachable

3:                                                ; preds = %1
  %4 = getelementptr inbounds i8, ptr %0, i64 32
  %5 = load i32, ptr %4, align 8
  %.not9 = icmp eq i32 %5, 0
  br i1 %.not9, label %6, label %7

6:                                                ; preds = %3
  tail call void @blobClose(ptr noundef nonnull %0)
  br label %7

7:                                                ; preds = %6, %3
  %8 = load ptr, ptr %0, align 8
  %.not10 = icmp eq ptr %8, null
  br i1 %.not10, label %10, label %9

9:                                                ; preds = %7
  tail call void @free(ptr noundef nonnull %8) #16
  br label %10

10:                                               ; preds = %9, %7
  %11 = getelementptr inbounds i8, ptr %0, i64 8
  %12 = load ptr, ptr %11, align 8
  tail call void @free(ptr noundef nonnull %0) #16
  ret ptr %12
}